target datalayout = "e-m:e-p270:32:32-p271:32:32-p272:64:64-i64:64-i128:128-f80:128-n8:16:32:64-S128"
target triple = "x86_64-pc-linux-gnu"

%struct._zend_refcounted_h = type { i32, %union.anon }
%union.anon = type { i32 }
%struct._zval_struct = type { %union._zend_value, %union.anon.0, %union.anon.3 }
%union._zend_value = type { i64 }
%union.anon.0 = type { i32 }
%union.anon.3 = type { i32 }
%struct._zend_generator = type { %struct._zend_object, ptr, ptr, %struct._zval_struct, %struct._zval_struct, %struct._zval_struct, ptr, i64, %struct._zval_struct, %struct._zend_generator_node, %struct._zend_execute_data, ptr, i8 }
%struct._zend_object = type { %struct._zend_refcounted_h, i32, i32, ptr, ptr, ptr, [1 x %struct._zval_struct] }
%struct._zend_generator_node = type { ptr, i32, %union.anon.4, %union.anon.5 }
%union.anon.4 = type { ptr }
%union.anon.5 = type { ptr }
%struct._zend_execute_data = type { ptr, ptr, ptr, ptr, %struct._zval_struct, ptr, ptr, ptr, ptr }
%struct.anon.1 = type { i8, i8, %union.anon.2 }
%union.anon.2 = type { i16 }

@zend_ce_generator = dso_local global ptr null, align 8

; Function Attrs: alwaysinline nounwind uwtable
define internal zeroext i8 @zval_get_type(ptr noundef %0) #2 {
  %2 = alloca ptr, align 8
  store ptr %0, ptr %2, align 8, !tbaa !36
  %3 = load ptr, ptr %2, align 8, !tbaa !36
  %4 = getelementptr inbounds nuw %struct._zval_struct, ptr %3, i32 0, i32 1
  %5 = getelementptr inbounds nuw %struct.anon.1, ptr %4, i32 0, i32 0
  %6 = load i8, ptr %5, align 8, !tbaa !26
  ret i8 %6
}

; Function Attrs: nounwind uwtable
define dso_local ptr @zend_generator_check_placeholder_frame(ptr noundef %0) #0 {
  %2 = alloca ptr, align 8
  %3 = alloca ptr, align 8
  %4 = alloca ptr, align 8
  store ptr %0, ptr %2, align 8, !tbaa !9
  %5 = load ptr, ptr %2, align 8, !tbaa !9
  %6 = getelementptr inbounds nuw %struct._zend_execute_data, ptr %5, i32 0, i32 3
  %7 = load ptr, ptr %6, align 8, !tbaa !27
  %8 = icmp ne ptr %7, null
  br i1 %8, label %72, label %9

9:                                                ; preds = %1
  %10 = load ptr, ptr %2, align 8, !tbaa !9
  %11 = getelementptr inbounds nuw %struct._zend_execute_data, ptr %10, i32 0, i32 4
  %12 = call zeroext i8 @zval_get_type(ptr noundef %11)
  %13 = zext i8 %12 to i32
  %14 = icmp eq i32 %13, 8
  br i1 %14, label %15, label %72

15:                                               ; preds = %9
  %16 = load ptr, ptr %2, align 8, !tbaa !9
  %17 = getelementptr inbounds nuw %struct._zend_execute_data, ptr %16, i32 0, i32 4
  %18 = getelementptr inbounds nuw %struct._zval_struct, ptr %17, i32 0, i32 0
  %19 = load ptr, ptr %18, align 8, !tbaa !26
  %20 = getelementptr inbounds nuw %struct._zend_object, ptr %19, i32 0, i32 3
  %21 = load ptr, ptr %20, align 8, !tbaa !79
  %22 = load ptr, ptr @zend_ce_generator, align 8, !tbaa !80
  %23 = icmp eq ptr %21, %22
  br i1 %23, label %24, label %71

24:                                               ; preds = %15
  call void @llvm.lifetime.start.p0(i64 8, ptr %3) #11
  %25 = load ptr, ptr %2, align 8, !tbaa !9
  %26 = getelementptr inbounds nuw %struct._zend_execute_data, ptr %25, i32 0, i32 4
  %27 = getelementptr inbounds nuw %struct._zval_struct, ptr %26, i32 0, i32 0
  %28 = load ptr, ptr %27, align 8, !tbaa !26
  store ptr %28, ptr %3, align 8, !tbaa !4
  call void @llvm.lifetime.start.p0(i64 8, ptr %4) #11
  %29 = load ptr, ptr %2, align 8, !tbaa !9
  %30 = getelementptr inbounds nuw %struct._zend_execute_data, ptr %29, i32 0, i32 5
  %31 = load ptr, ptr %30, align 8, !tbaa !29
  store ptr %31, ptr %4, align 8, !tbaa !9
  %32 = load ptr, ptr %3, align 8, !tbaa !4
  %33 = getelementptr inbounds nuw %struct._zend_generator, ptr %32, i32 0, i32 9
  %34 = getelementptr inbounds nuw %struct._zend_generator_node, ptr %33, i32 0, i32 0
  %35 = load ptr, ptr %34, align 8, !tbaa !73
  %36 = icmp ne ptr %35, null
  br i1 %36, label %37, label %38

37:                                               ; preds = %24
  br label %38

38:                                               ; preds = %37, %24
  %39 = phi i1 [ false, %24 ], [ true, %37 ]
  call void @llvm.assume(i1 %39)
  br label %40

40:                                               ; preds = %49, %38
  %41 = load ptr, ptr %3, align 8, !tbaa !4
  %42 = getelementptr inbounds nuw %struct._zend_generator, ptr %41, i32 0, i32 9
  %43 = getelementptr inbounds nuw %struct._zend_generator_node, ptr %42, i32 0, i32 0
  %44 = load ptr, ptr %43, align 8, !tbaa !73
  %45 = getelementptr inbounds nuw %struct._zend_generator, ptr %44, i32 0, i32 9
  %46 = getelementptr inbounds nuw %struct._zend_generator_node, ptr %45, i32 0, i32 0
  %47 = load ptr, ptr %46, align 8, !tbaa !73
  %48 = icmp ne ptr %47, null
  br i1 %48, label %49, label %62

49:                                               ; preds = %40
  %50 = load ptr, ptr %4, align 8, !tbaa !9
  %51 = load ptr, ptr %3, align 8, !tbaa !4
  %52 = getelementptr inbounds nuw %struct._zend_generator, ptr %51, i32 0, i32 1
  %53 = load ptr, ptr %52, align 8, !tbaa !30
  %54 = getelementptr inbounds nuw %struct._zend_execute_data, ptr %53, i32 0, i32 5
  store ptr %50, ptr %54, align 8, !tbaa !29
  %55 = load ptr, ptr %3, align 8, !tbaa !4
  %56 = getelementptr inbounds nuw %struct._zend_generator, ptr %55, i32 0, i32 1
  %57 = load ptr, ptr %56, align 8, !tbaa !30
  store ptr %57, ptr %4, align 8, !tbaa !9
  %58 = load ptr, ptr %3, align 8, !tbaa !4
  %59 = getelementptr inbounds nuw %struct._zend_generator, ptr %58, i32 0, i32 9
  %60 = getelementptr inbounds nuw %struct._zend_generator_node, ptr %59, i32 0, i32 0
  %61 = load ptr, ptr %60, align 8, !tbaa !73
  store ptr %61, ptr %3, align 8, !tbaa !4
  br label %40

62:                                               ; preds = %40
  %63 = load ptr, ptr %4, align 8, !tbaa !9
  %64 = load ptr, ptr %3, align 8, !tbaa !4
  %65 = getelementptr inbounds nuw %struct._zend_generator, ptr %64, i32 0, i32 1
  %66 = load ptr, ptr %65, align 8, !tbaa !30
  %67 = getelementptr inbounds nuw %struct._zend_execute_data, ptr %66, i32 0, i32 5
  store ptr %63, ptr %67, align 8, !tbaa !29
  %68 = load ptr, ptr %3, align 8, !tbaa !4
  %69 = getelementptr inbounds nuw %struct._zend_generator, ptr %68, i32 0, i32 1
  %70 = load ptr, ptr %69, align 8, !tbaa !30
  store ptr %70, ptr %2, align 8, !tbaa !9
  call void @llvm.lifetime.end.p0(i64 8, ptr %4) #11
  call void @llvm.lifetime.end.p0(i64 8, ptr %3) #11
  br label %71

71:                                               ; preds = %62, %15
  br label %72

72:                                               ; preds = %71, %9, %1
  %73 = load ptr, ptr %2, align 8, !tbaa !9
  ret ptr %73
}