; Function Attrs: nofree norecurse nosync nounwind memory(readwrite, inaccessiblemem: none) uwtable
define dso_local ptr @zend_generator_check_placeholder_frame(ptr noundef readonly captures(ret: address, provenance) %0) local_unnamed_addr #6 {
  %2 = getelementptr inbounds nuw i8, ptr %0, i64 24
  %3 = load ptr, ptr %2, align 8, !tbaa !25
  %.not = icmp eq ptr %3, null
  br i1 %.not, label %4, label %31

4:                                                ; preds = %1
  %5 = getelementptr inbounds nuw i8, ptr %0, i64 40
  %6 = load i8, ptr %5, align 8, !tbaa !24
  %7 = icmp eq i8 %6, 8
  br i1 %7, label %8, label %31

8:                                                ; preds = %4
  %9 = getelementptr inbounds nuw i8, ptr %0, i64 32
  %10 = load ptr, ptr %9, align 8, !tbaa !24
  %11 = getelementptr inbounds nuw i8, ptr %10, i64 16
  %12 = load ptr, ptr %11, align 8, !tbaa !95
  %13 = load ptr, ptr @zend_ce_generator, align 8, !tbaa !96
  %14 = icmp eq ptr %12, %13
  br i1 %14, label %15, label %31

15:                                               ; preds = %8
  %16 = getelementptr inbounds nuw i8, ptr %0, i64 48
  %17 = getelementptr inbounds nuw i8, ptr %10, i64 152
  %18 = load ptr, ptr %17, align 8, !tbaa !94, !nonnull !81, !noundef !81
  %.018 = load ptr, ptr %16, align 8, !tbaa !97
  %19 = getelementptr inbounds nuw i8, ptr %18, i64 152
  %20 = load ptr, ptr %19, align 8, !tbaa !94
  %.not1719 = icmp eq ptr %20, null
  br i1 %.not1719, label %._crit_edge, label %.lr.ph

.lr.ph:                                           ; preds = %15, %.lr.ph
  %21 = phi ptr [ %27, %.lr.ph ], [ %20, %15 ]
  %22 = phi ptr [ %21, %.lr.ph ], [ %18, %15 ]
  %.021 = phi ptr [ %.0, %.lr.ph ], [ %.018, %15 ]
  %.01520 = phi ptr [ %22, %.lr.ph ], [ %10, %15 ]
  %23 = getelementptr inbounds nuw i8, ptr %.01520, i64 56
  %24 = load ptr, ptr %23, align 8, !tbaa !56
  %25 = getelementptr inbounds nuw i8, ptr %24, i64 48
  store ptr %.021, ptr %25, align 8, !tbaa !55
  %.0 = load ptr, ptr %23, align 8, !tbaa !97
  %26 = getelementptr inbounds nuw i8, ptr %21, i64 152
  %27 = load ptr, ptr %26, align 8, !tbaa !94
  %.not17 = icmp eq ptr %27, null
  br i1 %.not17, label %._crit_edge, label %.lr.ph

._crit_edge:                                      ; preds = %.lr.ph, %15
  %.015.lcssa = phi ptr [ %10, %15 ], [ %22, %.lr.ph ]
  %.0.lcssa = phi ptr [ %.018, %15 ], [ %.0, %.lr.ph ]
  %28 = getelementptr inbounds nuw i8, ptr %.015.lcssa, i64 56
  %29 = load ptr, ptr %28, align 8, !tbaa !56
  %30 = getelementptr inbounds nuw i8, ptr %29, i64 48
  store ptr %.0.lcssa, ptr %30, align 8, !tbaa !55
  br label %31

31:                                               ; preds = %8, %._crit_edge, %4, %1
  %.016 = phi ptr [ %0, %1 ], [ %29, %._crit_edge ], [ %0, %8 ], [ %0, %4 ]
  ret ptr %.016
}